target datalayout = "e-m:e-p270:32:32-p271:32:32-p272:64:64-i64:64-i128:128-f80:128-n8:16:32:64-S128"
target triple = "x86_64-pc-linux-gnu"

%"class.cv::Mat" = type { i32, i32, i32, i32, ptr, ptr, ptr, ptr, ptr, ptr, %"struct.cv::MatSize", %"struct.cv::MatStep" }
%"struct.cv::MatSize" = type { ptr }
%"struct.cv::MatStep" = type { ptr, [2 x i64] }
%"struct.cv::detail::CameraParams" = type { double, double, double, double, %"class.cv::Mat", %"class.cv::Mat" }

; Function Attrs: mustprogress uwtable
define noundef nonnull align 8 dereferenceable(224) ptr @_ZN2cv6detail12CameraParamsaSERKS1_(ptr noundef nonnull align 8 dereferenceable(224) %0, ptr noundef nonnull align 8 dereferenceable(224) %1) #4 align 2 personality ptr @__gxx_personality_v0 {
  %3 = alloca ptr, align 8
  %4 = alloca ptr, align 8
  %5 = alloca %"class.cv::Mat", align 8
  %6 = alloca ptr, align 8
  %7 = alloca i32, align 4
  %8 = alloca %"class.cv::Mat", align 8
  store ptr %0, ptr %3, align 8
  store ptr %1, ptr %4, align 8
  %9 = load ptr, ptr %3, align 8
  %10 = load ptr, ptr %4, align 8
  %11 = getelementptr inbounds %"struct.cv::detail::CameraParams", ptr %10, i32 0, i32 0
  %12 = load double, ptr %11, align 8
  %13 = getelementptr inbounds %"struct.cv::detail::CameraParams", ptr %9, i32 0, i32 0
  store double %12, ptr %13, align 8
  %14 = load ptr, ptr %4, align 8
  %15 = getelementptr inbounds %"struct.cv::detail::CameraParams", ptr %14, i32 0, i32 2
  %16 = load double, ptr %15, align 8
  %17 = getelementptr inbounds %"struct.cv::detail::CameraParams", ptr %9, i32 0, i32 2
  store double %16, ptr %17, align 8
  %18 = load ptr, ptr %4, align 8
  %19 = getelementptr inbounds %"struct.cv::detail::CameraParams", ptr %18, i32 0, i32 3
  %20 = load double, ptr %19, align 8
  %21 = getelementptr inbounds %"struct.cv::detail::CameraParams", ptr %9, i32 0, i32 3
  store double %20, ptr %21, align 8
  %22 = load ptr, ptr %4, align 8
  %23 = getelementptr inbounds %"struct.cv::detail::CameraParams", ptr %22, i32 0, i32 1
  %24 = load double, ptr %23, align 8
  %25 = getelementptr inbounds %"struct.cv::detail::CameraParams", ptr %9, i32 0, i32 1
  store double %24, ptr %25, align 8
  %26 = load ptr, ptr %4, align 8
  %27 = getelementptr inbounds %"struct.cv::detail::CameraParams", ptr %26, i32 0, i32 4
  call void @_ZNK2cv3Mat5cloneEv(ptr dead_on_unwind writable sret(%"class.cv::Mat") align 8 %5, ptr noundef nonnull align 8 dereferenceable(96) %27)
  %28 = getelementptr inbounds %"struct.cv::detail::CameraParams", ptr %9, i32 0, i32 4
  %29 = invoke noundef nonnull align 8 dereferenceable(96) ptr @_ZN2cv3MataSEOS0_(ptr noundef nonnull align 8 dereferenceable(96) %28, ptr noundef nonnull align 8 dereferenceable(96) %5)
          to label %30 unwind label %36

30:                                               ; preds = %2
  call void @_ZN2cv3MatD1Ev(ptr noundef nonnull align 8 dereferenceable(96) %5) #3
  %31 = load ptr, ptr %4, align 8
  %32 = getelementptr inbounds %"struct.cv::detail::CameraParams", ptr %31, i32 0, i32 5
  call void @_ZNK2cv3Mat5cloneEv(ptr dead_on_unwind writable sret(%"class.cv::Mat") align 8 %8, ptr noundef nonnull align 8 dereferenceable(96) %32)
  %33 = getelementptr inbounds %"struct.cv::detail::CameraParams", ptr %9, i32 0, i32 5
  %34 = invoke noundef nonnull align 8 dereferenceable(96) ptr @_ZN2cv3MataSEOS0_(ptr noundef nonnull align 8 dereferenceable(96) %33, ptr noundef nonnull align 8 dereferenceable(96) %8)
          to label %35 unwind label %40

35:                                               ; preds = %30
  call void @_ZN2cv3MatD1Ev(ptr noundef nonnull align 8 dereferenceable(96) %8) #3
  ret ptr %9

36:                                               ; preds = %2
  %37 = landingpad { ptr, i32 }
          cleanup
  %38 = extractvalue { ptr, i32 } %37, 0
  store ptr %38, ptr %6, align 8
  %39 = extractvalue { ptr, i32 } %37, 1
  store i32 %39, ptr %7, align 4
  call void @_ZN2cv3MatD1Ev(ptr noundef nonnull align 8 dereferenceable(96) %5) #3
  br label %44

40:                                               ; preds = %30
  %41 = landingpad { ptr, i32 }
          cleanup
  %42 = extractvalue { ptr, i32 } %41, 0
  store ptr %42, ptr %6, align 8
  %43 = extractvalue { ptr, i32 } %41, 1
  store i32 %43, ptr %7, align 4
  call void @_ZN2cv3MatD1Ev(ptr noundef nonnull align 8 dereferenceable(96) %8) #3
  br label %44

44:                                               ; preds = %40, %36
  %45 = load ptr, ptr %6, align 8
  %46 = load i32, ptr %7, align 4
  %47 = insertvalue { ptr, i32 } poison, ptr %45, 0
  %48 = insertvalue { ptr, i32 } %47, i32 %46, 1
  resume { ptr, i32 } %48
}