; Function Attrs: mustprogress uwtable
define noundef nonnull align 8 dereferenceable(224) ptr @_ZN2cv6detail12CameraParamsaSERKS1_(ptr noundef nonnull returned align 8 dereferenceable(224) %0, ptr noundef nonnull align 8 dereferenceable(224) %1) local_unnamed_addr #3 align 2 personality ptr @__gxx_personality_v0 {
  %3 = alloca %"class.cv::Mat", align 8
  %4 = alloca %"class.cv::Mat", align 8
  %5 = load double, ptr %1, align 8
  store double %5, ptr %0, align 8
  %6 = getelementptr inbounds i8, ptr %1, i64 16
  %7 = load double, ptr %6, align 8
  %8 = getelementptr inbounds i8, ptr %0, i64 16
  store double %7, ptr %8, align 8
  %9 = getelementptr inbounds i8, ptr %1, i64 24
  %10 = load double, ptr %9, align 8
  %11 = getelementptr inbounds i8, ptr %0, i64 24
  store double %10, ptr %11, align 8
  %12 = getelementptr inbounds i8, ptr %1, i64 8
  %13 = load double, ptr %12, align 8
  %14 = getelementptr inbounds i8, ptr %0, i64 8
  store double %13, ptr %14, align 8
  %15 = getelementptr inbounds i8, ptr %1, i64 32
  call void @_ZNK2cv3Mat5cloneEv(ptr dead_on_unwind nonnull writable sret(%"class.cv::Mat") align 8 %3, ptr noundef nonnull align 8 dereferenceable(96) %15)
  %16 = getelementptr inbounds i8, ptr %0, i64 32
  %17 = invoke noundef nonnull align 8 dereferenceable(96) ptr @_ZN2cv3MataSEOS0_(ptr noundef nonnull align 8 dereferenceable(96) %16, ptr noundef nonnull align 8 dereferenceable(96) %3)
          to label %18 unwind label %23

18:                                               ; preds = %2
  call void @_ZN2cv3MatD1Ev(ptr noundef nonnull align 8 dereferenceable(96) %3) #7
  %19 = getelementptr inbounds i8, ptr %1, i64 128
  call void @_ZNK2cv3Mat5cloneEv(ptr dead_on_unwind nonnull writable sret(%"class.cv::Mat") align 8 %4, ptr noundef nonnull align 8 dereferenceable(96) %19)
  %20 = getelementptr inbounds i8, ptr %0, i64 128
  %21 = invoke noundef nonnull align 8 dereferenceable(96) ptr @_ZN2cv3MataSEOS0_(ptr noundef nonnull align 8 dereferenceable(96) %20, ptr noundef nonnull align 8 dereferenceable(96) %4)
          to label %22 unwind label %25

22:                                               ; preds = %18
  call void @_ZN2cv3MatD1Ev(ptr noundef nonnull align 8 dereferenceable(96) %4) #7
  ret ptr %0

23:                                               ; preds = %2
  %24 = landingpad { ptr, i32 }
          cleanup
  br label %27

25:                                               ; preds = %18
  %26 = landingpad { ptr, i32 }
          cleanup
  br label %27

27:                                               ; preds = %25, %23
  %.sink = phi ptr [ %4, %25 ], [ %3, %23 ]
  %.pn = phi { ptr, i32 } [ %26, %25 ], [ %24, %23 ]
  call void @_ZN2cv3MatD1Ev(ptr noundef nonnull align 8 dereferenceable(96) %.sink) #7
  resume { ptr, i32 } %.pn
}